target datalayout = "e-m:e-p270:32:32-p271:32:32-p272:64:64-i64:64-i128:128-f80:128-n8:16:32:64-S128"
target triple = "x86_64-pc-linux-gnu"

%struct._lv_font_t = type { ptr, ptr, ptr, i32, i32, i8, i8, i8, ptr, ptr, ptr }

; Function Attrs: nounwind uwtable
define internal void @lv_font_manager_delete_font_family(ptr noundef %0, ptr noundef %1) #0 {
  %3 = alloca ptr, align 8
  %4 = alloca ptr, align 8
  %5 = alloca ptr, align 8
  %6 = alloca ptr, align 8
  store ptr %0, ptr %3, align 8, !tbaa !7
  store ptr %1, ptr %4, align 8, !tbaa !7
  br label %7

7:                                                ; preds = %2
  %8 = load ptr, ptr %3, align 8, !tbaa !7
  %9 = icmp ne ptr %8, null
  br i1 %9, label %14, label %10

10:                                               ; preds = %7
  br label %11

11:                                               ; preds = %10
  br label %12

12:                                               ; preds = %11
  br label %13

13:                                               ; preds = %12, %13
  br label %13

14:                                               ; preds = %7
  br label %15

15:                                               ; preds = %14
  br label %16

16:                                               ; preds = %15
  %17 = load ptr, ptr %4, align 8, !tbaa !7
  %18 = icmp ne ptr %17, null
  br i1 %18, label %23, label %19

19:                                               ; preds = %16
  br label %20

20:                                               ; preds = %19
  br label %21

21:                                               ; preds = %20
  br label %22

22:                                               ; preds = %21, %22
  br label %22

23:                                               ; preds = %16
  br label %24

24:                                               ; preds = %23
  call void @llvm.lifetime.start.p0(i64 8, ptr %5) #6
  %25 = load ptr, ptr %4, align 8, !tbaa !7
  store ptr %25, ptr %5, align 8, !tbaa !7
  br label %26

26:                                               ; preds = %29, %24
  %27 = load ptr, ptr %5, align 8, !tbaa !7
  %28 = icmp ne ptr %27, null
  br i1 %28, label %29, label %37

29:                                               ; preds = %26
  call void @llvm.lifetime.start.p0(i64 8, ptr %6) #6
  %30 = load ptr, ptr %5, align 8, !tbaa !7
  %31 = getelementptr inbounds nuw %struct._lv_font_t, ptr %30, i32 0, i32 9
  %32 = load ptr, ptr %31, align 8, !tbaa !32
  store ptr %32, ptr %6, align 8, !tbaa !7
  %33 = load ptr, ptr %3, align 8, !tbaa !7
  %34 = load ptr, ptr %5, align 8, !tbaa !7
  %35 = call zeroext i1 @lv_font_manager_delete_font_single(ptr noundef %33, ptr noundef %34)
  %36 = load ptr, ptr %6, align 8, !tbaa !7
  store ptr %36, ptr %5, align 8, !tbaa !7
  call void @llvm.lifetime.end.p0(i64 8, ptr %6) #6
  br label %26, !llvm.loop !44

37:                                               ; preds = %26
  call void @llvm.lifetime.end.p0(i64 8, ptr %5) #6
  ret void
}

; Function Attrs: nounwind uwtable
define void @lv_font_manager_delete_font(ptr noundef %0, ptr noundef %1) #0 {
  %3 = alloca ptr, align 8
  %4 = alloca ptr, align 8
  store ptr %0, ptr %3, align 8, !tbaa !7
  store ptr %1, ptr %4, align 8, !tbaa !7
  br label %5

5:                                                ; preds = %2
  %6 = load ptr, ptr %3, align 8, !tbaa !7
  %7 = icmp ne ptr %6, null
  br i1 %7, label %12, label %8

8:                                                ; preds = %5
  br label %9

9:                                                ; preds = %8
  br label %10

10:                                               ; preds = %9
  br label %11

11:                                               ; preds = %10, %11
  br label %11

12:                                               ; preds = %5
  br label %13

13:                                               ; preds = %12
  br label %14

14:                                               ; preds = %13
  %15 = load ptr, ptr %4, align 8, !tbaa !7
  %16 = icmp ne ptr %15, null
  br i1 %16, label %21, label %17

17:                                               ; preds = %14
  br label %18

18:                                               ; preds = %17
  br label %19

19:                                               ; preds = %18
  br label %20

20:                                               ; preds = %19, %20
  br label %20

21:                                               ; preds = %14
  br label %22

22:                                               ; preds = %21
  %23 = load ptr, ptr %4, align 8, !tbaa !7
  %24 = getelementptr inbounds nuw %struct._lv_font_t, ptr %23, i32 0, i32 9
  %25 = load ptr, ptr %24, align 8, !tbaa !32
  %26 = icmp ne ptr %25, null
  br i1 %26, label %27, label %30

27:                                               ; preds = %22
  %28 = load ptr, ptr %3, align 8, !tbaa !7
  %29 = load ptr, ptr %4, align 8, !tbaa !7
  call void @lv_font_manager_delete_font_family(ptr noundef %28, ptr noundef %29)
  br label %34

30:                                               ; preds = %22
  %31 = load ptr, ptr %3, align 8, !tbaa !7
  %32 = load ptr, ptr %4, align 8, !tbaa !7
  %33 = call zeroext i1 @lv_font_manager_delete_font_single(ptr noundef %31, ptr noundef %32)
  br label %34

34:                                               ; preds = %30, %27
  ret void
}