; Function Attrs: nounwind uwtable
define void @lv_font_manager_delete_font(ptr noundef %0, ptr noundef %1) local_unnamed_addr #0 {
  %.not = icmp eq ptr %0, null
  br i1 %.not, label %.preheader, label %3

.preheader:                                       ; preds = %2, %.preheader
  br label %.preheader

3:                                                ; preds = %2
  %.not8 = icmp eq ptr %1, null
  br i1 %.not8, label %.preheader10, label %4

.preheader10:                                     ; preds = %3, %.preheader10
  br label %.preheader10

4:                                                ; preds = %3
  %5 = getelementptr inbounds nuw i8, ptr %1, i64 48
  %6 = load ptr, ptr %5, align 8, !tbaa !33
  %.not9 = icmp eq ptr %6, null
  br i1 %.not9, label %9, label %.preheader11

.preheader11:                                     ; preds = %4, %.preheader11
  %.010.i = phi ptr [ %8, %.preheader11 ], [ %1, %4 ]
  %7 = getelementptr inbounds nuw i8, ptr %.010.i, i64 48
  %8 = load ptr, ptr %7, align 8, !tbaa !33
  tail call fastcc void @lv_font_manager_delete_font_single(ptr noundef nonnull %0, ptr noundef %.010.i)
  %.not.i = icmp eq ptr %8, null
  br i1 %.not.i, label %lv_font_manager_delete_font_family.exit, label %.preheader11, !llvm.loop !44

9:                                                ; preds = %4
  tail call fastcc void @lv_font_manager_delete_font_single(ptr noundef %0, ptr noundef %1)
  br label %lv_font_manager_delete_font_family.exit

lv_font_manager_delete_font_family.exit:          ; preds = %.preheader11, %9
  ret void
}